; Function Attrs: nofree norecurse nosync nounwind memory(readwrite, inaccessiblemem: none) uwtable
define internal noundef i32 @wrap_slice16(ptr noundef readonly captures(none) %0, ptr noundef readonly captures(none) %1, i32 noundef %2, i32 noundef %3) #4 {
  %5 = getelementptr inbounds nuw i8, ptr %0, i64 72
  %6 = load ptr, ptr %5, align 8, !tbaa !33
  %7 = getelementptr inbounds nuw i8, ptr %6, i64 120
  %8 = load ptr, ptr %7, align 8, !tbaa !36
  %9 = getelementptr inbounds nuw i8, ptr %8, i64 68
  %10 = load i32, ptr %9, align 4, !tbaa !40
  %11 = sdiv i32 %10, 2
  %12 = getelementptr inbounds nuw i8, ptr %8, i64 72
  %13 = load i32, ptr %12, align 8, !tbaa !40
  %14 = sdiv i32 %13, 2
  %15 = getelementptr inbounds nuw i8, ptr %6, i64 8
  %16 = load i32, ptr %15, align 8, !tbaa !80
  %17 = getelementptr inbounds nuw i8, ptr %6, i64 12
  %18 = load i32, ptr %17, align 4, !tbaa !81
  %19 = getelementptr inbounds nuw i8, ptr %6, i64 16
  %20 = load i32, ptr %19, align 8, !tbaa !82
  %21 = getelementptr inbounds nuw i8, ptr %6, i64 20
  %22 = load i32, ptr %21, align 4, !tbaa !83
  %23 = getelementptr inbounds nuw i8, ptr %6, i64 72
  %24 = load i32, ptr %23, align 4, !tbaa !40
  %25 = getelementptr inbounds nuw i8, ptr %6, i64 88
  %26 = load i32, ptr %25, align 4, !tbaa !40
  %27 = mul nsw i32 %24, %2
  %28 = sdiv i32 %27, %3
  %29 = add nsw i32 %2, 1
  %30 = mul nsw i32 %24, %29
  %31 = sdiv i32 %30, %3
  %32 = getelementptr inbounds nuw i8, ptr %8, i64 8
  %33 = load ptr, ptr %32, align 8, !tbaa !39
  %34 = getelementptr inbounds nuw i8, ptr %8, i64 16
  %35 = load ptr, ptr %34, align 8, !tbaa !39
  %36 = icmp slt i32 %28, %31
  br i1 %36, label %.lr.ph94, label %._crit_edge95

.lr.ph94:                                         ; preds = %4
  %37 = getelementptr inbounds nuw i8, ptr %1, i64 72
  %38 = load i32, ptr %37, align 8, !tbaa !40
  %39 = sdiv i32 %38, 2
  %40 = getelementptr inbounds nuw i8, ptr %1, i64 68
  %41 = load i32, ptr %40, align 4, !tbaa !40
  %42 = sdiv i32 %41, 2
  %43 = icmp sgt i32 %26, 0
  %44 = sext i32 %42 to i64
  %45 = sext i32 %39 to i64
  br i1 %43, label %.lr.ph.us.preheader, label %._crit_edge95

.lr.ph.us.preheader:                              ; preds = %.lr.ph94
  %46 = getelementptr inbounds nuw i8, ptr %1, i64 8
  %47 = load ptr, ptr %46, align 8, !tbaa !39
  %48 = mul nsw i32 %28, %42
  %49 = sext i32 %48 to i64
  %50 = getelementptr inbounds i16, ptr %47, i64 %49
  %51 = getelementptr inbounds nuw i8, ptr %1, i64 16
  %52 = load ptr, ptr %51, align 8, !tbaa !39
  %53 = mul nsw i32 %28, %39
  %54 = sext i32 %53 to i64
  %55 = getelementptr inbounds i16, ptr %52, i64 %54
  %wide.trip.count = zext nneg i32 %26 to i64
  br label %.lr.ph.us

.lr.ph.us:                                        ; preds = %.lr.ph.us.preheader, %._crit_edge.us
  %.07792.us = phi i32 [ %89, %._crit_edge.us ], [ %28, %.lr.ph.us.preheader ]
  %.07891.us = phi ptr [ %88, %._crit_edge.us ], [ %55, %.lr.ph.us.preheader ]
  %.07990.us = phi ptr [ %87, %._crit_edge.us ], [ %50, %.lr.ph.us.preheader ]
  %56 = sub nsw i32 %.07792.us, %18
  %57 = srem i32 %56, %24
  %58 = sub nsw i32 %.07792.us, %22
  %59 = srem i32 %58, %24
  %60 = icmp slt i32 %57, 0
  %61 = select i1 %60, i32 %24, i32 0
  %spec.select.us = add nsw i32 %61, %57
  %62 = icmp slt i32 %59, 0
  %63 = select i1 %62, i32 %24, i32 0
  %.075.us = add nsw i32 %63, %59
  %64 = mul nsw i32 %spec.select.us, %11
  %65 = mul nsw i32 %.075.us, %14
  br label %66

66:                                               ; preds = %.lr.ph.us, %66
  %indvars.iv = phi i64 [ 0, %.lr.ph.us ], [ %indvars.iv.next, %66 ]
  %67 = trunc i64 %indvars.iv to i32
  %68 = sub i32 %67, %16
  %69 = srem i32 %68, %26
  %70 = trunc i64 %indvars.iv to i32
  %71 = sub i32 %70, %20
  %72 = srem i32 %71, %26
  %73 = icmp slt i32 %69, 0
  %74 = select i1 %73, i32 %26, i32 0
  %75 = icmp slt i32 %72, 0
  %76 = select i1 %75, i32 %26, i32 0
  %spec.select88.us = add i32 %69, %64
  %77 = add i32 %spec.select88.us, %74
  %78 = sext i32 %77 to i64
  %79 = getelementptr inbounds i16, ptr %33, i64 %78
  %80 = load i16, ptr %79, align 2, !tbaa !64
  %81 = getelementptr inbounds nuw i16, ptr %.07990.us, i64 %indvars.iv
  store i16 %80, ptr %81, align 2, !tbaa !64
  %.0.us = add i32 %72, %65
  %82 = add i32 %.0.us, %76
  %83 = sext i32 %82 to i64
  %84 = getelementptr inbounds i16, ptr %35, i64 %83
  %85 = load i16, ptr %84, align 2, !tbaa !64
  %86 = getelementptr inbounds nuw i16, ptr %.07891.us, i64 %indvars.iv
  store i16 %85, ptr %86, align 2, !tbaa !64
  %indvars.iv.next = add nuw nsw i64 %indvars.iv, 1
  %exitcond.not = icmp eq i64 %indvars.iv.next, %wide.trip.count
  br i1 %exitcond.not, label %._crit_edge.us, label %66, !llvm.loop !84

._crit_edge.us:                                   ; preds = %66
  %87 = getelementptr inbounds i16, ptr %.07990.us, i64 %44
  %88 = getelementptr inbounds i16, ptr %.07891.us, i64 %45
  %89 = add nsw i32 %.07792.us, 1
  %exitcond98.not = icmp eq i32 %89, %31
  br i1 %exitcond98.not, label %._crit_edge95, label %.lr.ph.us, !llvm.loop !85

._crit_edge95:                                    ; preds = %._crit_edge.us, %.lr.ph94, %4
  ret i32 0
}